#include <math.h>
#include <stdio.h>
#include <stdlib.h>
#include <string.h>



char str[300];
void main()
{
	int i,j;
	while(scanf("%s",str)!=EOF)
	{
		int len=strlen(str);
		printf("%s\n",str);
		for(i=0;i<len;i++)
		{
			if(str[i]!='('&&str[i]!=')')
				str[i]=' ';
		}		
		for(i=0;i<len;i++)
		{
			int b=0;
            if(str[i]==')')
			{
				for(j=i-1;j>=0;j--)
				{
					if(str[j]=='(')
					{
						str[j]=' ';
						str[i]=' ';
						b=1;
						break;
					}
				}
				if(b==0)
					str[i]='?';
			}
		}
		for(i=0;i<len;i++)
		{
			if(str[i]=='(')
				str[i]='$';
			if(str[i]==')')
				str[i]='?';
		}
		printf("%s\n",str);
	}
}

