; ModuleID = '17/60.c'
source_filename = "17/60.c"
target datalayout = "e-m:e-p270:32:32-p271:32:32-p272:64:64-i64:64-f80:128-n8:16:32:64-S128"
target triple = "x86_64-pc-linux-gnu"

@.str = private unnamed_addr constant [3 x i8] c"%s\00", align 1
@str = common dso_local global [300 x i8] zeroinitializer, align 16
@.str.1 = private unnamed_addr constant [4 x i8] c"%s\0A\00", align 1

; Function Attrs: noinline nounwind uwtable
define dso_local void @main() #0 {
  %1 = alloca i32, align 4
  %2 = alloca i32, align 4
  %3 = alloca i32, align 4
  %4 = alloca i32, align 4
  br label %5

5:                                                ; preds = %117, %0
  %6 = call i32 (i8*, ...) @__isoc99_scanf(i8* getelementptr inbounds ([3 x i8], [3 x i8]* @.str, i64 0, i64 0), i8* getelementptr inbounds ([300 x i8], [300 x i8]* @str, i64 0, i64 0))
  %7 = icmp ne i32 %6, -1
  br i1 %7, label %8, label %119

8:                                                ; preds = %5
  %9 = call i64 @strlen(i8* getelementptr inbounds ([300 x i8], [300 x i8]* @str, i64 0, i64 0)) #3
  %10 = trunc i64 %9 to i32
  store i32 %10, i32* %3, align 4
  %11 = call i32 (i8*, ...) @printf(i8* getelementptr inbounds ([4 x i8], [4 x i8]* @.str.1, i64 0, i64 0), i8* getelementptr inbounds ([300 x i8], [300 x i8]* @str, i64 0, i64 0))
  store i32 0, i32* %1, align 4
  br label %12

12:                                               ; preds = %35, %8
  %13 = load i32, i32* %1, align 4
  %14 = load i32, i32* %3, align 4
  %15 = icmp slt i32 %13, %14
  br i1 %15, label %16, label %38

16:                                               ; preds = %12
  %17 = load i32, i32* %1, align 4
  %18 = sext i32 %17 to i64
  %19 = getelementptr inbounds [300 x i8], [300 x i8]* @str, i64 0, i64 %18
  %20 = load i8, i8* %19, align 1
  %21 = sext i8 %20 to i32
  %22 = icmp ne i32 %21, 40
  br i1 %22, label %23, label %34

23:                                               ; preds = %16
  %24 = load i32, i32* %1, align 4
  %25 = sext i32 %24 to i64
  %26 = getelementptr inbounds [300 x i8], [300 x i8]* @str, i64 0, i64 %25
  %27 = load i8, i8* %26, align 1
  %28 = sext i8 %27 to i32
  %29 = icmp ne i32 %28, 41
  br i1 %29, label %30, label %34

30:                                               ; preds = %23
  %31 = load i32, i32* %1, align 4
  %32 = sext i32 %31 to i64
  %33 = getelementptr inbounds [300 x i8], [300 x i8]* @str, i64 0, i64 %32
  store i8 32, i8* %33, align 1
  br label %34

34:                                               ; preds = %30, %23, %16
  br label %35

35:                                               ; preds = %34
  %36 = load i32, i32* %1, align 4
  %37 = add nsw i32 %36, 1
  store i32 %37, i32* %1, align 4
  br label %12

38:                                               ; preds = %12
  store i32 0, i32* %1, align 4
  br label %39

39:                                               ; preds = %83, %38
  %40 = load i32, i32* %1, align 4
  %41 = load i32, i32* %3, align 4
  %42 = icmp slt i32 %40, %41
  br i1 %42, label %43, label %86

43:                                               ; preds = %39
  store i32 0, i32* %4, align 4
  %44 = load i32, i32* %1, align 4
  %45 = sext i32 %44 to i64
  %46 = getelementptr inbounds [300 x i8], [300 x i8]* @str, i64 0, i64 %45
  %47 = load i8, i8* %46, align 1
  %48 = sext i8 %47 to i32
  %49 = icmp eq i32 %48, 41
  br i1 %49, label %50, label %82

50:                                               ; preds = %43
  %51 = load i32, i32* %1, align 4
  %52 = sub nsw i32 %51, 1
  store i32 %52, i32* %2, align 4
  br label %53

53:                                               ; preds = %71, %50
  %54 = load i32, i32* %2, align 4
  %55 = icmp sge i32 %54, 0
  br i1 %55, label %56, label %74

56:                                               ; preds = %53
  %57 = load i32, i32* %2, align 4
  %58 = sext i32 %57 to i64
  %59 = getelementptr inbounds [300 x i8], [300 x i8]* @str, i64 0, i64 %58
  %60 = load i8, i8* %59, align 1
  %61 = sext i8 %60 to i32
  %62 = icmp eq i32 %61, 40
  br i1 %62, label %63, label %70

63:                                               ; preds = %56
  %64 = load i32, i32* %2, align 4
  %65 = sext i32 %64 to i64
  %66 = getelementptr inbounds [300 x i8], [300 x i8]* @str, i64 0, i64 %65
  store i8 32, i8* %66, align 1
  %67 = load i32, i32* %1, align 4
  %68 = sext i32 %67 to i64
  %69 = getelementptr inbounds [300 x i8], [300 x i8]* @str, i64 0, i64 %68
  store i8 32, i8* %69, align 1
  store i32 1, i32* %4, align 4
  br label %74

70:                                               ; preds = %56
  br label %71

71:                                               ; preds = %70
  %72 = load i32, i32* %2, align 4
  %73 = add nsw i32 %72, -1
  store i32 %73, i32* %2, align 4
  br label %53

74:                                               ; preds = %63, %53
  %75 = load i32, i32* %4, align 4
  %76 = icmp eq i32 %75, 0
  br i1 %76, label %77, label %81

77:                                               ; preds = %74
  %78 = load i32, i32* %1, align 4
  %79 = sext i32 %78 to i64
  %80 = getelementptr inbounds [300 x i8], [300 x i8]* @str, i64 0, i64 %79
  store i8 63, i8* %80, align 1
  br label %81

81:                                               ; preds = %77, %74
  br label %82

82:                                               ; preds = %81, %43
  br label %83

83:                                               ; preds = %82
  %84 = load i32, i32* %1, align 4
  %85 = add nsw i32 %84, 1
  store i32 %85, i32* %1, align 4
  br label %39

86:                                               ; preds = %39
  store i32 0, i32* %1, align 4
  br label %87

87:                                               ; preds = %114, %86
  %88 = load i32, i32* %1, align 4
  %89 = load i32, i32* %3, align 4
  %90 = icmp slt i32 %88, %89
  br i1 %90, label %91, label %117

91:                                               ; preds = %87
  %92 = load i32, i32* %1, align 4
  %93 = sext i32 %92 to i64
  %94 = getelementptr inbounds [300 x i8], [300 x i8]* @str, i64 0, i64 %93
  %95 = load i8, i8* %94, align 1
  %96 = sext i8 %95 to i32
  %97 = icmp eq i32 %96, 40
  br i1 %97, label %98, label %102

98:                                               ; preds = %91
  %99 = load i32, i32* %1, align 4
  %100 = sext i32 %99 to i64
  %101 = getelementptr inbounds [300 x i8], [300 x i8]* @str, i64 0, i64 %100
  store i8 36, i8* %101, align 1
  br label %102

102:                                              ; preds = %98, %91
  %103 = load i32, i32* %1, align 4
  %104 = sext i32 %103 to i64
  %105 = getelementptr inbounds [300 x i8], [300 x i8]* @str, i64 0, i64 %104
  %106 = load i8, i8* %105, align 1
  %107 = sext i8 %106 to i32
  %108 = icmp eq i32 %107, 41
  br i1 %108, label %109, label %113

109:                                              ; preds = %102
  %110 = load i32, i32* %1, align 4
  %111 = sext i32 %110 to i64
  %112 = getelementptr inbounds [300 x i8], [300 x i8]* @str, i64 0, i64 %111
  store i8 63, i8* %112, align 1
  br label %113

113:                                              ; preds = %109, %102
  br label %114

114:                                              ; preds = %113
  %115 = load i32, i32* %1, align 4
  %116 = add nsw i32 %115, 1
  store i32 %116, i32* %1, align 4
  br label %87

117:                                              ; preds = %87
  %118 = call i32 (i8*, ...) @printf(i8* getelementptr inbounds ([4 x i8], [4 x i8]* @.str.1, i64 0, i64 0), i8* getelementptr inbounds ([300 x i8], [300 x i8]* @str, i64 0, i64 0))
  br label %5

119:                                              ; preds = %5
  ret void
}

declare dso_local i32 @__isoc99_scanf(i8*, ...) #1

; Function Attrs: nounwind readonly
declare dso_local i64 @strlen(i8*) #2

declare dso_local i32 @printf(i8*, ...) #1


!llvm.module.flags = !{!0}
!llvm.ident = !{!1}

!0 = !{i32 1, !"wchar_size", i32 4}
!1 = !{!"clang version 10.0.0-4ubuntu1 "}
